Certificate:
    Data:
        Version: 3 (0x2)
        Serial Number:
            8f:93:28:90:3d:19:17:5e:fe:e9:77:ec:08:64:27:e0
        Signature Algorithm: sha256WithRSAEncryption
        Issuer: CN=CA
        Validity
            Not Before: May  2 00:10:31 2023 GMT
            Not After : Aug  4 00:10:31 2025 GMT
        Subject: CN=server
        Subject Public Key Info:
            Public Key Algorithm: rsaEncryption
                Public-Key: (2048 bit)
                Modulus:
                    00:c7:a7:dc:76:02:c3:36:07:7c:53:4f:af:1e:0e:
                    50:69:4b:76:a9:07:1f:13:dc:da:b4:0e:16:7e:80:
                    c5:14:c3:33:05:fa:36:f5:ff:0c:b3:16:f1:ec:00:
                    6d:5c:ab:6d:8f:f3:98:c8:82:e7:20:f9:dc:15:11:
                    52:cf:05:10:c7:0e:25:2a:b8:3e:5a:e4:f1:e7:21:
                    ec:fe:55:c0:4d:39:aa:bc:73:be:eb:90:24:80:7c:
                    c1:89:42:12:d8:85:ce:bf:64:ac:28:f3:b4:5f:14:
                    4b:1f:e9:60:b4:52:82:50:b1:87:f7:46:31:6b:4d:
                    94:b2:b7:02:ce:50:ef:ca:23:c6:f7:6e:52:d1:98:
                    39:46:0a:c9:e0:2b:81:95:ac:ba:a0:e5:20:9a:64:
                    2c:d9:43:6b:81:37:58:d0:50:17:37:62:ad:cc:c3:
                    c1:7d:3b:70:aa:4e:37:14:93:56:7b:56:f1:99:d8:
                    dd:3a:b4:de:18:60:12:50:8d:81:06:65:7b:c3:db:
                    62:f5:99:4e:a4:71:02:af:7c:7d:8a:19:f5:28:28:
                    1e:91:2a:fd:ed:1c:ee:41:f0:58:de:8e:58:a3:01:
                    1b:05:9a:f9:1a:8f:ae:9f:34:4c:a3:dd:d5:55:14:
                    de:ea:90:59:cd:64:eb:95:89:e2:d2:a4:c6:66:71:
                    7b:27
                Exponent: 65537 (0x10001)
        X509v3 extensions:
            X509v3 Basic Constraints: 
                CA:FALSE
            X509v3 Subject Key Identifier: 
                C6:7F:8B:D6:FE:5D:8F:8D:70:6E:CE:7B:79:F7:21:91:52:85:D2:3C
            X509v3 Authority Key Identifier: 
                keyid:C2:CC:54:5C:DA:DF:C7:5E:8C:B5:47:F5:27:19:67:15:28:D3:19:88
                DirName:/CN=CA
                serial:20:AD:1A:21:D2:5B:36:C2:CB:88:07:47:43:6F:B4:1D:2D:0A:C9:E3
            X509v3 Extended Key Usage: 
                TLS Web Server Authentication
            X509v3 Key Usage: 
                Digital Signature, Key Encipherment
            X509v3 Subject Alternative Name: 
                DNS:server
    Signature Algorithm: sha256WithRSAEncryption
    Signature Value:
        33:3f:57:46:55:01:6e:3c:31:c8:67:07:a6:6c:48:72:1f:a0:
        3b:71:0b:07:37:9e:b0:53:ad:21:19:ac:ca:85:5d:8a:83:42:
        d3:4e:eb:df:1c:36:ea:f3:bc:d2:5e:46:94:70:87:8a:ea:41:
        56:71:2c:fd:95:d9:c0:49:9d:9c:f9:8f:ed:0a:a1:ef:38:e4:
        d8:d8:24:9b:79:0e:56:80:33:39:2a:2e:06:b7:e5:2a:d5:6f:
        1f:8a:8e:e6:1d:76:72:ec:ee:3a:cd:aa:74:96:43:17:61:2a:
        f4:c0:2a:14:e3:9c:8d:d9:87:6b:fd:96:c5:3b:2a:be:f9:49:
        3c:f7:2b:1f:fd:93:eb:8b:41:42:96:92:ce:54:62:27:3e:61:
        c1:71:61:16:ea:72:b3:51:f1:0f:d0:b4:08:9a:6e:8e:6d:5b:
        b5:24:8f:b0:48:88:01:da:f9:9c:00:0b:2e:08:53:c1:15:02:
        89:98:ab:e0:26:5c:cc:89:93:18:4c:57:5b:8e:81:ee:c1:9c:
        97:c9:1b:e5:d1:59:a4:e6:9c:6e:a4:35:28:44:59:ce:89:96:
        24:29:12:98:ef:25:4c:0a:3b:d3:30:12:50:41:e4:04:6b:01:
        c9:0e:aa:ae:98:41:46:66:94:73:4c:2e:27:b9:ce:1f:78:71:
        83:03:1e:94
-----BEGIN CERTIFICATE-----
MIIDVjCCAj6gAwIBAgIRAI+TKJA9GRde/ul37AhkJ+AwDQYJKoZIhvcNAQELBQAw
DTELMAkGA1UEAwwCQ0EwHhcNMjMwNTAyMDAxMDMxWhcNMjUwODA0MDAxMDMxWjAR
MQ8wDQYDVQQDDAZzZXJ2ZXIwggEiMA0GCSqGSIb3DQEBAQUAA4IBDwAwggEKAoIB
AQDHp9x2AsM2B3xTT68eDlBpS3apBx8T3Nq0DhZ+gMUUwzMF+jb1/wyzFvHsAG1c
q22P85jIgucg+dwVEVLPBRDHDiUquD5a5PHnIez+VcBNOaq8c77rkCSAfMGJQhLY
hc6/ZKwo87RfFEsf6WC0UoJQsYf3RjFrTZSytwLOUO/KI8b3blLRmDlGCsngK4GV
rLqg5SCaZCzZQ2uBN1jQUBc3Yq3Mw8F9O3CqTjcUk1Z7VvGZ2N06tN4YYBJQjYEG
ZXvD22L1mU6kcQKvfH2KGfUoKB6RKv3tHO5B8FjejlijARsFmvkaj66fNEyj3dVV
FN7qkFnNZOuVieLSpMZmcXsnAgMBAAGjgawwgakwCQYDVR0TBAIwADAdBgNVHQ4E
FgQUxn+L1v5dj41wbs57efchkVKF0jwwSAYDVR0jBEEwP4AUwsxUXNrfx16MtUf1
JxlnFSjTGYihEaQPMA0xCzAJBgNVBAMMAkNBghQgrRoh0ls2wsuIB0dDb7QdLQrJ
4zATBgNVHSUEDDAKBggrBgEFBQcDATALBgNVHQ8EBAMCBaAwEQYDVR0RBAowCIIG
c2VydmVyMA0GCSqGSIb3DQEBCwUAA4IBAQAzP1dGVQFuPDHIZwembEhyH6A7cQsH
N56wU60hGazKhV2Kg0LTTuvfHDbq87zSXkaUcIeK6kFWcSz9ldnASZ2c+Y/tCqHv
OOTY2CSbeQ5WgDM5Ki4Gt+Uq1W8fio7mHXZy7O46zap0lkMXYSr0wCoU45yN2Ydr
/ZbFOyq++Uk89ysf/ZPri0FClpLOVGInPmHBcWEW6nKzUfEP0LQImm6ObVu1JI+w
SIgB2vmcAAsuCFPBFQKJmKvgJlzMiZMYTFdbjoHuwZyXyRvl0Vmk5pxupDUoRFnO
iZYkKRKY7yVMCjvTMBJQQeQEawHJDqqumEFGZpRzTC4nuc4feHGDAx6U
-----END CERTIFICATE-----
